; ModuleID = '25/781.c'
source_filename = "25/781.c"
target datalayout = "e-m:e-p270:32:32-p271:32:32-p272:64:64-i64:64-f80:128-n8:16:32:64-S128"
target triple = "x86_64-pc-linux-gnu"

@a = common dso_local global [100 x i32] zeroinitializer, align 16
@.str = private unnamed_addr constant [3 x i8] c"%d\00", align 1

; Function Attrs: noinline nounwind uwtable
define dso_local i32 @main() #0 {
  %1 = alloca i32, align 4
  %2 = alloca i32, align 4
  %3 = alloca i32, align 4
  %4 = alloca i32, align 4
  store i32 0, i32* %1, align 4
  store i32 1, i32* getelementptr inbounds ([100 x i32], [100 x i32]* @a, i64 0, i64 0), align 16
  store i32 1, i32* %2, align 4
  %5 = call i32 (i8*, ...) @__isoc99_scanf(i8* getelementptr inbounds ([3 x i8], [3 x i8]* @.str, i64 0, i64 0), i32* %4)
  br label %6

6:                                                ; preds = %64, %0
  %7 = load i32, i32* %4, align 4
  %8 = add nsw i32 %7, -1
  store i32 %8, i32* %4, align 4
  %9 = icmp ne i32 %7, 0
  br i1 %9, label %10, label %65

10:                                               ; preds = %6
  store i32 0, i32* %3, align 4
  br label %11

11:                                               ; preds = %21, %10
  %12 = load i32, i32* %3, align 4
  %13 = load i32, i32* %2, align 4
  %14 = icmp slt i32 %12, %13
  br i1 %14, label %15, label %24

15:                                               ; preds = %11
  %16 = load i32, i32* %3, align 4
  %17 = sext i32 %16 to i64
  %18 = getelementptr inbounds [100 x i32], [100 x i32]* @a, i64 0, i64 %17
  %19 = load i32, i32* %18, align 4
  %20 = mul nsw i32 %19, 2
  store i32 %20, i32* %18, align 4
  br label %21

21:                                               ; preds = %15
  %22 = load i32, i32* %3, align 4
  %23 = add nsw i32 %22, 1
  store i32 %23, i32* %3, align 4
  br label %11

24:                                               ; preds = %11
  store i32 0, i32* %3, align 4
  br label %25

25:                                               ; preds = %61, %24
  %26 = load i32, i32* %3, align 4
  %27 = load i32, i32* %2, align 4
  %28 = icmp slt i32 %26, %27
  br i1 %28, label %29, label %64

29:                                               ; preds = %25
  %30 = load i32, i32* %3, align 4
  %31 = sext i32 %30 to i64
  %32 = getelementptr inbounds [100 x i32], [100 x i32]* @a, i64 0, i64 %31
  %33 = load i32, i32* %32, align 4
  %34 = icmp sge i32 %33, 10
  br i1 %34, label %35, label %60

35:                                               ; preds = %29
  %36 = load i32, i32* %3, align 4
  %37 = sext i32 %36 to i64
  %38 = getelementptr inbounds [100 x i32], [100 x i32]* @a, i64 0, i64 %37
  %39 = load i32, i32* %38, align 4
  %40 = sdiv i32 %39, 10
  %41 = load i32, i32* %3, align 4
  %42 = add nsw i32 %41, 1
  %43 = sext i32 %42 to i64
  %44 = getelementptr inbounds [100 x i32], [100 x i32]* @a, i64 0, i64 %43
  %45 = load i32, i32* %44, align 4
  %46 = add nsw i32 %45, %40
  store i32 %46, i32* %44, align 4
  %47 = load i32, i32* %3, align 4
  %48 = sext i32 %47 to i64
  %49 = getelementptr inbounds [100 x i32], [100 x i32]* @a, i64 0, i64 %48
  %50 = load i32, i32* %49, align 4
  %51 = srem i32 %50, 10
  store i32 %51, i32* %49, align 4
  %52 = load i32, i32* %3, align 4
  %53 = load i32, i32* %2, align 4
  %54 = sub nsw i32 %53, 1
  %55 = icmp eq i32 %52, %54
  br i1 %55, label %56, label %59

56:                                               ; preds = %35
  %57 = load i32, i32* %2, align 4
  %58 = add nsw i32 %57, 1
  store i32 %58, i32* %2, align 4
  br label %59

59:                                               ; preds = %56, %35
  br label %60

60:                                               ; preds = %59, %29
  br label %61

61:                                               ; preds = %60
  %62 = load i32, i32* %3, align 4
  %63 = add nsw i32 %62, 1
  store i32 %63, i32* %3, align 4
  br label %25

64:                                               ; preds = %25
  br label %6

65:                                               ; preds = %6
  %66 = load i32, i32* %2, align 4
  %67 = sub nsw i32 %66, 1
  store i32 %67, i32* %3, align 4
  br label %68

68:                                               ; preds = %77, %65
  %69 = load i32, i32* %3, align 4
  %70 = icmp sge i32 %69, 0
  br i1 %70, label %71, label %80

71:                                               ; preds = %68
  %72 = load i32, i32* %3, align 4
  %73 = sext i32 %72 to i64
  %74 = getelementptr inbounds [100 x i32], [100 x i32]* @a, i64 0, i64 %73
  %75 = load i32, i32* %74, align 4
  %76 = call i32 (i8*, ...) @printf(i8* getelementptr inbounds ([3 x i8], [3 x i8]* @.str, i64 0, i64 0), i32 %75)
  br label %77

77:                                               ; preds = %71
  %78 = load i32, i32* %3, align 4
  %79 = add nsw i32 %78, -1
  store i32 %79, i32* %3, align 4
  br label %68

80:                                               ; preds = %68
  ret i32 0
}

declare dso_local i32 @__isoc99_scanf(i8*, ...) #1

declare dso_local i32 @printf(i8*, ...) #1


!llvm.module.flags = !{!0}
!llvm.ident = !{!1}

!0 = !{i32 1, !"wchar_size", i32 4}
!1 = !{!"clang version 10.0.0-4ubuntu1 "}
